target datalayout = "e-m:e-p270:32:32-p271:32:32-p272:64:64-i64:64-i128:128-f80:128-n8:16:32:64-S128"
target triple = "x86_64-pc-linux-gnu"

%struct.RsaKey = type { %struct.sp_int, %struct.sp_int, %struct.sp_int, %struct.sp_int, %struct.sp_int, %struct.sp_int, %struct.sp_int, %struct.sp_int, ptr, ptr, i32, i32, i32, ptr, i8 }
%struct.sp_int = type { i16, i16, [129 x i64] }

; Function Attrs: nounwind uwtable
define internal i32 @CalcDX(ptr noundef %0, ptr noundef %1, ptr noundef %2) #0 {
  %4 = alloca ptr, align 8
  %5 = alloca ptr, align 8
  %6 = alloca ptr, align 8
  %7 = alloca i32, align 4
  %8 = alloca [1 x %struct.sp_int], align 16
  store ptr %0, ptr %4, align 8, !tbaa !40
  store ptr %1, ptr %5, align 8, !tbaa !40
  store ptr %2, ptr %6, align 8, !tbaa !40
  call void @llvm.lifetime.start.p0(i64 4, ptr %7) #8
  call void @llvm.lifetime.start.p0(i64 1040, ptr %8) #8
  %9 = getelementptr inbounds [1 x %struct.sp_int], ptr %8, i64 0, i64 0
  %10 = call i32 @sp_init(ptr noundef %9)
  store i32 %10, ptr %7, align 4, !tbaa !7
  %11 = load i32, ptr %7, align 4, !tbaa !7
  %12 = icmp eq i32 %11, 0
  br i1 %12, label %13, label %26

13:                                               ; preds = %3
  %14 = load ptr, ptr %5, align 8, !tbaa !40
  %15 = getelementptr inbounds [1 x %struct.sp_int], ptr %8, i64 0, i64 0
  %16 = call i32 @sp_sub_d(ptr noundef %14, i64 noundef 1, ptr noundef %15)
  store i32 %16, ptr %7, align 4, !tbaa !7
  %17 = load i32, ptr %7, align 4, !tbaa !7
  %18 = icmp eq i32 %17, 0
  br i1 %18, label %19, label %24

19:                                               ; preds = %13
  %20 = load ptr, ptr %6, align 8, !tbaa !40
  %21 = getelementptr inbounds [1 x %struct.sp_int], ptr %8, i64 0, i64 0
  %22 = load ptr, ptr %4, align 8, !tbaa !40
  %23 = call i32 @sp_mod(ptr noundef %20, ptr noundef %21, ptr noundef %22)
  store i32 %23, ptr %7, align 4, !tbaa !7
  br label %24

24:                                               ; preds = %19, %13
  %25 = getelementptr inbounds [1 x %struct.sp_int], ptr %8, i64 0, i64 0
  call void @sp_forcezero(ptr noundef %25)
  br label %26

26:                                               ; preds = %24, %3
  %27 = load i32, ptr %7, align 4, !tbaa !7
  call void @llvm.lifetime.end.p0(i64 1040, ptr %8) #8
  call void @llvm.lifetime.end.p0(i64 4, ptr %7) #8
  ret i32 %27
}

; Function Attrs: nounwind uwtable
define i32 @wc_RsaPrivateKeyDecodeRaw(ptr noundef %0, i32 noundef %1, ptr noundef %2, i32 noundef %3, ptr noundef %4, i32 noundef %5, ptr noundef %6, i32 noundef %7, ptr noundef %8, i32 noundef %9, ptr noundef %10, i32 noundef %11, ptr noundef %12, i32 noundef %13, ptr noundef %14, i32 noundef %15, ptr noundef %16) #0 {
  %18 = alloca ptr, align 8
  %19 = alloca i32, align 4
  %20 = alloca ptr, align 8
  %21 = alloca i32, align 4
  %22 = alloca ptr, align 8
  %23 = alloca i32, align 4
  %24 = alloca ptr, align 8
  %25 = alloca i32, align 4
  %26 = alloca ptr, align 8
  %27 = alloca i32, align 4
  %28 = alloca ptr, align 8
  %29 = alloca i32, align 4
  %30 = alloca ptr, align 8
  %31 = alloca i32, align 4
  %32 = alloca ptr, align 8
  %33 = alloca i32, align 4
  %34 = alloca ptr, align 8
  %35 = alloca i32, align 4
  store ptr %0, ptr %18, align 8, !tbaa !27
  store i32 %1, ptr %19, align 4, !tbaa !7
  store ptr %2, ptr %20, align 8, !tbaa !27
  store i32 %3, ptr %21, align 4, !tbaa !7
  store ptr %4, ptr %22, align 8, !tbaa !27
  store i32 %5, ptr %23, align 4, !tbaa !7
  store ptr %6, ptr %24, align 8, !tbaa !27
  store i32 %7, ptr %25, align 4, !tbaa !7
  store ptr %8, ptr %26, align 8, !tbaa !27
  store i32 %9, ptr %27, align 4, !tbaa !7
  store ptr %10, ptr %28, align 8, !tbaa !27
  store i32 %11, ptr %29, align 4, !tbaa !7
  store ptr %12, ptr %30, align 8, !tbaa !27
  store i32 %13, ptr %31, align 4, !tbaa !7
  store ptr %14, ptr %32, align 8, !tbaa !27
  store i32 %15, ptr %33, align 4, !tbaa !7
  store ptr %16, ptr %34, align 8, !tbaa !11
  call void @llvm.lifetime.start.p0(i64 4, ptr %35) #8
  store i32 0, ptr %35, align 4, !tbaa !7
  %36 = load ptr, ptr %18, align 8, !tbaa !27
  %37 = icmp eq ptr %36, null
  br i1 %37, label %68, label %38

38:                                               ; preds = %17
  %39 = load i32, ptr %19, align 4, !tbaa !7
  %40 = icmp eq i32 %39, 0
  br i1 %40, label %68, label %41

41:                                               ; preds = %38
  %42 = load ptr, ptr %20, align 8, !tbaa !27
  %43 = icmp eq ptr %42, null
  br i1 %43, label %68, label %44

44:                                               ; preds = %41
  %45 = load i32, ptr %21, align 4, !tbaa !7
  %46 = icmp eq i32 %45, 0
  br i1 %46, label %68, label %47

47:                                               ; preds = %44
  %48 = load ptr, ptr %22, align 8, !tbaa !27
  %49 = icmp eq ptr %48, null
  br i1 %49, label %68, label %50

50:                                               ; preds = %47
  %51 = load i32, ptr %23, align 4, !tbaa !7
  %52 = icmp eq i32 %51, 0
  br i1 %52, label %68, label %53

53:                                               ; preds = %50
  %54 = load ptr, ptr %26, align 8, !tbaa !27
  %55 = icmp eq ptr %54, null
  br i1 %55, label %68, label %56

56:                                               ; preds = %53
  %57 = load i32, ptr %27, align 4, !tbaa !7
  %58 = icmp eq i32 %57, 0
  br i1 %58, label %68, label %59

59:                                               ; preds = %56
  %60 = load ptr, ptr %28, align 8, !tbaa !27
  %61 = icmp eq ptr %60, null
  br i1 %61, label %68, label %62

62:                                               ; preds = %59
  %63 = load i32, ptr %29, align 4, !tbaa !7
  %64 = icmp eq i32 %63, 0
  br i1 %64, label %68, label %65

65:                                               ; preds = %62
  %66 = load ptr, ptr %34, align 8, !tbaa !11
  %67 = icmp eq ptr %66, null
  br i1 %67, label %68, label %69

68:                                               ; preds = %65, %62, %59, %56, %53, %50, %47, %44, %41, %38, %17
  store i32 -173, ptr %35, align 4, !tbaa !7
  br label %69

69:                                               ; preds = %68, %65
  %70 = load i32, ptr %35, align 4, !tbaa !7
  %71 = icmp eq i32 %70, 0
  br i1 %71, label %72, label %92

72:                                               ; preds = %69
  %73 = load ptr, ptr %24, align 8, !tbaa !27
  %74 = icmp eq ptr %73, null
  br i1 %74, label %90, label %75

75:                                               ; preds = %72
  %76 = load i32, ptr %25, align 4, !tbaa !7
  %77 = icmp eq i32 %76, 0
  br i1 %77, label %90, label %78

78:                                               ; preds = %75
  %79 = load ptr, ptr %30, align 8, !tbaa !27
  %80 = icmp ne ptr %79, null
  br i1 %80, label %81, label %84

81:                                               ; preds = %78
  %82 = load i32, ptr %31, align 4, !tbaa !7
  %83 = icmp eq i32 %82, 0
  br i1 %83, label %90, label %84

84:                                               ; preds = %81, %78
  %85 = load ptr, ptr %32, align 8, !tbaa !27
  %86 = icmp ne ptr %85, null
  br i1 %86, label %87, label %91

87:                                               ; preds = %84
  %88 = load i32, ptr %33, align 4, !tbaa !7
  %89 = icmp eq i32 %88, 0
  br i1 %89, label %90, label %91

90:                                               ; preds = %87, %81, %75, %72
  store i32 -173, ptr %35, align 4, !tbaa !7
  br label %91

91:                                               ; preds = %90, %87, %84
  br label %92

92:                                               ; preds = %91, %69
  %93 = load i32, ptr %35, align 4, !tbaa !7
  %94 = icmp eq i32 %93, 0
  br i1 %94, label %95, label %101

95:                                               ; preds = %92
  %96 = load ptr, ptr %34, align 8, !tbaa !11
  %97 = getelementptr inbounds nuw %struct.RsaKey, ptr %96, i32 0, i32 0
  %98 = load ptr, ptr %18, align 8, !tbaa !27
  %99 = load i32, ptr %19, align 4, !tbaa !7
  %100 = call i32 @sp_read_unsigned_bin(ptr noundef %97, ptr noundef %98, i32 noundef %99)
  store i32 %100, ptr %35, align 4, !tbaa !7
  br label %101

101:                                              ; preds = %95, %92
  %102 = load i32, ptr %35, align 4, !tbaa !7
  %103 = icmp eq i32 %102, 0
  br i1 %103, label %104, label %110

104:                                              ; preds = %101
  %105 = load ptr, ptr %34, align 8, !tbaa !11
  %106 = getelementptr inbounds nuw %struct.RsaKey, ptr %105, i32 0, i32 1
  %107 = load ptr, ptr %20, align 8, !tbaa !27
  %108 = load i32, ptr %21, align 4, !tbaa !7
  %109 = call i32 @sp_read_unsigned_bin(ptr noundef %106, ptr noundef %107, i32 noundef %108)
  store i32 %109, ptr %35, align 4, !tbaa !7
  br label %110

110:                                              ; preds = %104, %101
  %111 = load i32, ptr %35, align 4, !tbaa !7
  %112 = icmp eq i32 %111, 0
  br i1 %112, label %113, label %119

113:                                              ; preds = %110
  %114 = load ptr, ptr %34, align 8, !tbaa !11
  %115 = getelementptr inbounds nuw %struct.RsaKey, ptr %114, i32 0, i32 2
  %116 = load ptr, ptr %22, align 8, !tbaa !27
  %117 = load i32, ptr %23, align 4, !tbaa !7
  %118 = call i32 @sp_read_unsigned_bin(ptr noundef %115, ptr noundef %116, i32 noundef %117)
  store i32 %118, ptr %35, align 4, !tbaa !7
  br label %119

119:                                              ; preds = %113, %110
  %120 = load i32, ptr %35, align 4, !tbaa !7
  %121 = icmp eq i32 %120, 0
  br i1 %121, label %122, label %128

122:                                              ; preds = %119
  %123 = load ptr, ptr %34, align 8, !tbaa !11
  %124 = getelementptr inbounds nuw %struct.RsaKey, ptr %123, i32 0, i32 3
  %125 = load ptr, ptr %26, align 8, !tbaa !27
  %126 = load i32, ptr %27, align 4, !tbaa !7
  %127 = call i32 @sp_read_unsigned_bin(ptr noundef %124, ptr noundef %125, i32 noundef %126)
  store i32 %127, ptr %35, align 4, !tbaa !7
  br label %128

128:                                              ; preds = %122, %119
  %129 = load i32, ptr %35, align 4, !tbaa !7
  %130 = icmp eq i32 %129, 0
  br i1 %130, label %131, label %137

131:                                              ; preds = %128
  %132 = load ptr, ptr %34, align 8, !tbaa !11
  %133 = getelementptr inbounds nuw %struct.RsaKey, ptr %132, i32 0, i32 4
  %134 = load ptr, ptr %28, align 8, !tbaa !27
  %135 = load i32, ptr %29, align 4, !tbaa !7
  %136 = call i32 @sp_read_unsigned_bin(ptr noundef %133, ptr noundef %134, i32 noundef %135)
  store i32 %136, ptr %35, align 4, !tbaa !7
  br label %137

137:                                              ; preds = %131, %128
  %138 = load i32, ptr %35, align 4, !tbaa !7
  %139 = icmp eq i32 %138, 0
  br i1 %139, label %140, label %146

140:                                              ; preds = %137
  %141 = load ptr, ptr %34, align 8, !tbaa !11
  %142 = getelementptr inbounds nuw %struct.RsaKey, ptr %141, i32 0, i32 7
  %143 = load ptr, ptr %24, align 8, !tbaa !27
  %144 = load i32, ptr %25, align 4, !tbaa !7
  %145 = call i32 @sp_read_unsigned_bin(ptr noundef %142, ptr noundef %143, i32 noundef %144)
  store i32 %145, ptr %35, align 4, !tbaa !7
  br label %146

146:                                              ; preds = %140, %137
  %147 = load i32, ptr %35, align 4, !tbaa !7
  %148 = icmp eq i32 %147, 0
  br i1 %148, label %149, label %167

149:                                              ; preds = %146
  %150 = load ptr, ptr %30, align 8, !tbaa !27
  %151 = icmp ne ptr %150, null
  br i1 %151, label %152, label %158

152:                                              ; preds = %149
  %153 = load ptr, ptr %34, align 8, !tbaa !11
  %154 = getelementptr inbounds nuw %struct.RsaKey, ptr %153, i32 0, i32 5
  %155 = load ptr, ptr %30, align 8, !tbaa !27
  %156 = load i32, ptr %31, align 4, !tbaa !7
  %157 = call i32 @sp_read_unsigned_bin(ptr noundef %154, ptr noundef %155, i32 noundef %156)
  store i32 %157, ptr %35, align 4, !tbaa !7
  br label %166

158:                                              ; preds = %149
  %159 = load ptr, ptr %34, align 8, !tbaa !11
  %160 = getelementptr inbounds nuw %struct.RsaKey, ptr %159, i32 0, i32 5
  %161 = load ptr, ptr %34, align 8, !tbaa !11
  %162 = getelementptr inbounds nuw %struct.RsaKey, ptr %161, i32 0, i32 3
  %163 = load ptr, ptr %34, align 8, !tbaa !11
  %164 = getelementptr inbounds nuw %struct.RsaKey, ptr %163, i32 0, i32 2
  %165 = call i32 @CalcDX(ptr noundef %160, ptr noundef %162, ptr noundef %164)
  store i32 %165, ptr %35, align 4, !tbaa !7
  br label %166

166:                                              ; preds = %158, %152
  br label %167

167:                                              ; preds = %166, %146
  %168 = load i32, ptr %35, align 4, !tbaa !7
  %169 = icmp eq i32 %168, 0
  br i1 %169, label %170, label %188

170:                                              ; preds = %167
  %171 = load ptr, ptr %32, align 8, !tbaa !27
  %172 = icmp ne ptr %171, null
  br i1 %172, label %173, label %179

173:                                              ; preds = %170
  %174 = load ptr, ptr %34, align 8, !tbaa !11
  %175 = getelementptr inbounds nuw %struct.RsaKey, ptr %174, i32 0, i32 6
  %176 = load ptr, ptr %32, align 8, !tbaa !27
  %177 = load i32, ptr %33, align 4, !tbaa !7
  %178 = call i32 @sp_read_unsigned_bin(ptr noundef %175, ptr noundef %176, i32 noundef %177)
  store i32 %178, ptr %35, align 4, !tbaa !7
  br label %187

179:                                              ; preds = %170
  %180 = load ptr, ptr %34, align 8, !tbaa !11
  %181 = getelementptr inbounds nuw %struct.RsaKey, ptr %180, i32 0, i32 6
  %182 = load ptr, ptr %34, align 8, !tbaa !11
  %183 = getelementptr inbounds nuw %struct.RsaKey, ptr %182, i32 0, i32 4
  %184 = load ptr, ptr %34, align 8, !tbaa !11
  %185 = getelementptr inbounds nuw %struct.RsaKey, ptr %184, i32 0, i32 2
  %186 = call i32 @CalcDX(ptr noundef %181, ptr noundef %183, ptr noundef %185)
  store i32 %186, ptr %35, align 4, !tbaa !7
  br label %187

187:                                              ; preds = %179, %173
  br label %188

188:                                              ; preds = %187, %167
  %189 = load i32, ptr %35, align 4, !tbaa !7
  %190 = icmp eq i32 %189, 0
  br i1 %190, label %191, label %194

191:                                              ; preds = %188
  %192 = load ptr, ptr %34, align 8, !tbaa !11
  %193 = getelementptr inbounds nuw %struct.RsaKey, ptr %192, i32 0, i32 10
  store i32 1, ptr %193, align 8, !tbaa !13
  br label %215

194:                                              ; preds = %188
  %195 = load ptr, ptr %34, align 8, !tbaa !11
  %196 = icmp ne ptr %195, null
  br i1 %196, label %197, label %214

197:                                              ; preds = %194
  %198 = load ptr, ptr %34, align 8, !tbaa !11
  %199 = getelementptr inbounds nuw %struct.RsaKey, ptr %198, i32 0, i32 0
  call void @sp_clear(ptr noundef %199)
  %200 = load ptr, ptr %34, align 8, !tbaa !11
  %201 = getelementptr inbounds nuw %struct.RsaKey, ptr %200, i32 0, i32 1
  call void @sp_clear(ptr noundef %201)
  %202 = load ptr, ptr %34, align 8, !tbaa !11
  %203 = getelementptr inbounds nuw %struct.RsaKey, ptr %202, i32 0, i32 2
  call void @sp_clear(ptr noundef %203)
  %204 = load ptr, ptr %34, align 8, !tbaa !11
  %205 = getelementptr inbounds nuw %struct.RsaKey, ptr %204, i32 0, i32 3
  call void @sp_clear(ptr noundef %205)
  %206 = load ptr, ptr %34, align 8, !tbaa !11
  %207 = getelementptr inbounds nuw %struct.RsaKey, ptr %206, i32 0, i32 4
  call void @sp_clear(ptr noundef %207)
  %208 = load ptr, ptr %34, align 8, !tbaa !11
  %209 = getelementptr inbounds nuw %struct.RsaKey, ptr %208, i32 0, i32 7
  call void @sp_clear(ptr noundef %209)
  %210 = load ptr, ptr %34, align 8, !tbaa !11
  %211 = getelementptr inbounds nuw %struct.RsaKey, ptr %210, i32 0, i32 5
  call void @sp_clear(ptr noundef %211)
  %212 = load ptr, ptr %34, align 8, !tbaa !11
  %213 = getelementptr inbounds nuw %struct.RsaKey, ptr %212, i32 0, i32 6
  call void @sp_clear(ptr noundef %213)
  br label %214

214:                                              ; preds = %197, %194
  br label %215

215:                                              ; preds = %214, %191
  %216 = load i32, ptr %35, align 4, !tbaa !7
  call void @llvm.lifetime.end.p0(i64 4, ptr %35) #8
  ret i32 %216
}