; Function Attrs: nounwind uwtable
define i32 @wc_RsaPrivateKeyDecodeRaw(ptr noundef %0, i32 noundef %1, ptr noundef %2, i32 noundef %3, ptr noundef %4, i32 noundef %5, ptr noundef %6, i32 noundef %7, ptr noundef %8, i32 noundef %9, ptr noundef %10, i32 noundef %11, ptr noundef %12, i32 noundef %13, ptr noundef %14, i32 noundef %15, ptr noundef %16) local_unnamed_addr #0 {
  %18 = alloca [1 x %struct.sp_int], align 16
  %19 = alloca [1 x %struct.sp_int], align 16
  %20 = icmp eq ptr %0, null
  %21 = icmp eq i32 %1, 0
  %or.cond = or i1 %20, %21
  %22 = icmp eq ptr %2, null
  %or.cond3 = or i1 %or.cond, %22
  %23 = icmp eq i32 %3, 0
  %or.cond5 = or i1 %or.cond3, %23
  %24 = icmp eq ptr %4, null
  %or.cond7 = or i1 %or.cond5, %24
  %25 = icmp eq i32 %5, 0
  %or.cond9 = or i1 %or.cond7, %25
  %26 = icmp eq ptr %8, null
  %or.cond11 = or i1 %or.cond9, %26
  %27 = icmp eq i32 %9, 0
  %or.cond13 = or i1 %or.cond11, %27
  %28 = icmp eq ptr %10, null
  %or.cond15 = or i1 %or.cond13, %28
  %29 = icmp eq i32 %11, 0
  %or.cond17 = or i1 %or.cond15, %29
  %30 = icmp eq ptr %16, null
  %or.cond19 = or i1 %or.cond17, %30
  br i1 %or.cond19, label %.thread105, label %31

31:                                               ; preds = %17
  %32 = icmp eq ptr %6, null
  %33 = icmp eq i32 %7, 0
  %or.cond21 = or i1 %32, %33
  br i1 %or.cond21, label %.thread143, label %34

34:                                               ; preds = %31
  %35 = icmp ne ptr %12, null
  %36 = icmp eq i32 %13, 0
  %or.cond23 = and i1 %35, %36
  br i1 %or.cond23, label %.thread143, label %37

37:                                               ; preds = %34
  %38 = icmp ne ptr %14, null
  %39 = icmp eq i32 %15, 0
  %or.cond25 = and i1 %38, %39
  br i1 %or.cond25, label %.thread143, label %.thread

.thread:                                          ; preds = %37
  %40 = tail call i32 @sp_read_unsigned_bin(ptr noundef nonnull %16, ptr noundef %0, i32 noundef %1) #12
  %41 = icmp eq i32 %40, 0
  br i1 %41, label %42, label %.thread143

42:                                               ; preds = %.thread
  %43 = getelementptr inbounds nuw i8, ptr %16, i64 1040
  %44 = tail call i32 @sp_read_unsigned_bin(ptr noundef nonnull %43, ptr noundef %2, i32 noundef %3) #12
  %45 = icmp eq i32 %44, 0
  br i1 %45, label %46, label %.thread143

46:                                               ; preds = %42
  %47 = getelementptr inbounds nuw i8, ptr %16, i64 2080
  %48 = tail call i32 @sp_read_unsigned_bin(ptr noundef nonnull %47, ptr noundef %4, i32 noundef %5) #12
  %49 = icmp eq i32 %48, 0
  br i1 %49, label %50, label %.thread143

50:                                               ; preds = %46
  %51 = getelementptr inbounds nuw i8, ptr %16, i64 3120
  %52 = tail call i32 @sp_read_unsigned_bin(ptr noundef nonnull %51, ptr noundef nonnull %8, i32 noundef %9) #12
  %53 = icmp eq i32 %52, 0
  br i1 %53, label %54, label %.thread143

54:                                               ; preds = %50
  %55 = getelementptr inbounds nuw i8, ptr %16, i64 4160
  %56 = tail call i32 @sp_read_unsigned_bin(ptr noundef nonnull %55, ptr noundef nonnull %10, i32 noundef %11) #12
  %57 = icmp eq i32 %56, 0
  br i1 %57, label %58, label %.thread143

58:                                               ; preds = %54
  %59 = getelementptr inbounds nuw i8, ptr %16, i64 7280
  %60 = tail call i32 @sp_read_unsigned_bin(ptr noundef nonnull %59, ptr noundef nonnull %6, i32 noundef %7) #12
  %61 = icmp eq i32 %60, 0
  br i1 %61, label %62, label %.thread143

62:                                               ; preds = %58
  %.not = icmp eq ptr %12, null
  %63 = getelementptr inbounds nuw i8, ptr %16, i64 5200
  br i1 %.not, label %66, label %64

64:                                               ; preds = %62
  %65 = tail call i32 @sp_read_unsigned_bin(ptr noundef nonnull %63, ptr noundef nonnull %12, i32 noundef %13) #12
  br label %75

66:                                               ; preds = %62
  call void @llvm.lifetime.start.p0(i64 1040, ptr nonnull %19) #12
  %67 = call i32 @sp_init(ptr noundef nonnull %19) #12
  %68 = icmp eq i32 %67, 0
  br i1 %68, label %69, label %CalcDX.exit

69:                                               ; preds = %66
  %70 = call i32 @sp_sub_d(ptr noundef nonnull %51, i64 noundef 1, ptr noundef nonnull %19) #12
  %71 = icmp eq i32 %70, 0
  br i1 %71, label %72, label %74

72:                                               ; preds = %69
  %73 = call i32 @sp_mod(ptr noundef nonnull %47, ptr noundef nonnull %19, ptr noundef nonnull %63) #12
  br label %74

74:                                               ; preds = %72, %69
  %.1.i = phi i32 [ %73, %72 ], [ %70, %69 ]
  call void @sp_forcezero(ptr noundef nonnull %19) #12
  br label %CalcDX.exit

CalcDX.exit:                                      ; preds = %66, %74
  %.0.i = phi i32 [ %.1.i, %74 ], [ %67, %66 ]
  call void @llvm.lifetime.end.p0(i64 1040, ptr nonnull %19) #12
  br label %75

75:                                               ; preds = %64, %CalcDX.exit
  %.8 = phi i32 [ %65, %64 ], [ %.0.i, %CalcDX.exit ]
  %76 = icmp eq i32 %.8, 0
  br i1 %76, label %77, label %.thread143

77:                                               ; preds = %75
  %.not97 = icmp eq ptr %14, null
  %78 = getelementptr inbounds nuw i8, ptr %16, i64 6240
  br i1 %.not97, label %81, label %79

79:                                               ; preds = %77
  %80 = call i32 @sp_read_unsigned_bin(ptr noundef nonnull %78, ptr noundef nonnull %14, i32 noundef %15) #12
  br label %90

81:                                               ; preds = %77
  call void @llvm.lifetime.start.p0(i64 1040, ptr nonnull %18) #12
  %82 = call i32 @sp_init(ptr noundef nonnull %18) #12
  %83 = icmp eq i32 %82, 0
  br i1 %83, label %84, label %CalcDX.exit101

84:                                               ; preds = %81
  %85 = call i32 @sp_sub_d(ptr noundef nonnull %55, i64 noundef 1, ptr noundef nonnull %18) #12
  %86 = icmp eq i32 %85, 0
  br i1 %86, label %87, label %89

87:                                               ; preds = %84
  %88 = call i32 @sp_mod(ptr noundef nonnull %47, ptr noundef nonnull %18, ptr noundef nonnull %78) #12
  br label %89

89:                                               ; preds = %87, %84
  %.1.i100 = phi i32 [ %88, %87 ], [ %85, %84 ]
  call void @sp_forcezero(ptr noundef nonnull %18) #12
  br label %CalcDX.exit101

CalcDX.exit101:                                   ; preds = %81, %89
  %.0.i99 = phi i32 [ %.1.i100, %89 ], [ %82, %81 ]
  call void @llvm.lifetime.end.p0(i64 1040, ptr nonnull %18) #12
  br label %90

90:                                               ; preds = %79, %CalcDX.exit101
  %.9 = phi i32 [ %80, %79 ], [ %.0.i99, %CalcDX.exit101 ]
  %91 = icmp eq i32 %.9, 0
  br i1 %91, label %92, label %.thread143

92:                                               ; preds = %90
  %93 = getelementptr inbounds nuw i8, ptr %16, i64 8336
  store i32 1, ptr %93, align 8, !tbaa !3
  br label %101

.thread105:                                       ; preds = %17
  br i1 %30, label %101, label %.thread143

.thread143:                                       ; preds = %.thread, %31, %34, %37, %90, %75, %58, %54, %50, %46, %42, %.thread105
  %.9129132 = phi i32 [ -173, %.thread105 ], [ %44, %42 ], [ %48, %46 ], [ %52, %50 ], [ %56, %54 ], [ %60, %58 ], [ %.8, %75 ], [ %.9, %90 ], [ -173, %37 ], [ -173, %34 ], [ -173, %31 ], [ %40, %.thread ]
  call void @sp_clear(ptr noundef nonnull %16) #12
  %94 = getelementptr inbounds nuw i8, ptr %16, i64 1040
  call void @sp_clear(ptr noundef nonnull %94) #12
  %95 = getelementptr inbounds nuw i8, ptr %16, i64 2080
  call void @sp_clear(ptr noundef nonnull %95) #12
  %96 = getelementptr inbounds nuw i8, ptr %16, i64 3120
  call void @sp_clear(ptr noundef nonnull %96) #12
  %97 = getelementptr inbounds nuw i8, ptr %16, i64 4160
  call void @sp_clear(ptr noundef nonnull %97) #12
  %98 = getelementptr inbounds nuw i8, ptr %16, i64 7280
  call void @sp_clear(ptr noundef nonnull %98) #12
  %99 = getelementptr inbounds nuw i8, ptr %16, i64 5200
  call void @sp_clear(ptr noundef nonnull %99) #12
  %100 = getelementptr inbounds nuw i8, ptr %16, i64 6240
  call void @sp_clear(ptr noundef nonnull %100) #12
  br label %101

101:                                              ; preds = %.thread105, %.thread143, %92
  %.9128 = phi i32 [ -173, %.thread105 ], [ %.9129132, %.thread143 ], [ 0, %92 ]
  ret i32 %.9128
}